target datalayout = "e-m:e-p270:32:32-p271:32:32-p272:64:64-i64:64-i128:128-f80:128-n8:16:32:64-S128"
target triple = "x86_64-pc-linux-gnu"

@globalUtilOptind = external global i32, align 4
@.str.18 = private unnamed_addr constant [62 x i8] c"\09-v     : toggle printing verbose information [default = %s]\0A\00", align 1
@.str.19 = private unnamed_addr constant [4 x i8] c"yes\00", align 1
@.str.20 = private unnamed_addr constant [3 x i8] c"no\00", align 1
@.str.21 = private unnamed_addr constant [35 x i8] c"\09-h     : print the command usage\0A\00", align 1
@.str.60 = private unnamed_addr constant [4 x i8] c"Nvh\00", align 1
@.str.61 = private unnamed_addr constant [60 x i8] c"Command line switch \22-N\22 should be followed by an integer.\0A\00", align 1
@.str.62 = private unnamed_addr constant [29 x i8] c"usage: |test [-N num] [-vh]\0A\00", align 1
@.str.63 = private unnamed_addr constant [33 x i8] c"\09         experiments with SOPs\0A\00", align 1
@.str.64 = private unnamed_addr constant [50 x i8] c"\09-N num : the number of variables [default = %d]\0A\00", align 1

; Function Attrs: inlinehint nounwind willreturn memory(read) uwtable
define available_externally i32 @atoi(ptr noundef nonnull %0) #7 {
  %2 = alloca ptr, align 8
  store ptr %0, ptr %2, align 8, !tbaa !14
  %3 = load ptr, ptr %2, align 8, !tbaa !14
  %4 = call i64 @strtol(ptr noundef %3, ptr noundef null, i32 noundef 10) #8
  %5 = trunc i64 %4 to i32
  ret i32 %5
}

; Function Attrs: nounwind uwtable
define internal i32 @Abc_CommandTest(ptr noundef %0, i32 noundef %1, ptr noundef %2) #0 {
  %4 = alloca i32, align 4
  %5 = alloca ptr, align 8
  %6 = alloca i32, align 4
  %7 = alloca ptr, align 8
  %8 = alloca i32, align 4
  %9 = alloca i32, align 4
  %10 = alloca i32, align 4
  %11 = alloca i32, align 4
  store ptr %0, ptr %5, align 8, !tbaa !3
  store i32 %1, ptr %6, align 4, !tbaa !8
  store ptr %2, ptr %7, align 8, !tbaa !10
  call void @llvm.lifetime.start.p0(i64 4, ptr %8) #8
  call void @llvm.lifetime.start.p0(i64 4, ptr %9) #8
  store i32 4, ptr %9, align 4, !tbaa !8
  call void @llvm.lifetime.start.p0(i64 4, ptr %10) #8
  store i32 0, ptr %10, align 4, !tbaa !8
  call void (...) @Extra_UtilGetoptReset()
  br label %12

12:                                               ; preds = %42, %3
  %13 = load i32, ptr %6, align 4, !tbaa !8
  %14 = load ptr, ptr %7, align 8, !tbaa !10
  %15 = call i32 @Extra_UtilGetopt(i32 noundef %13, ptr noundef %14, ptr noundef @.str.60)
  store i32 %15, ptr %8, align 4, !tbaa !8
  %16 = icmp ne i32 %15, -1
  br i1 %16, label %17, label %43

17:                                               ; preds = %12
  %18 = load i32, ptr %8, align 4, !tbaa !8
  switch i32 %18, label %41 [
    i32 78, label %19
    i32 118, label %37
    i32 104, label %40
  ]

19:                                               ; preds = %17
  %20 = load i32, ptr @globalUtilOptind, align 4, !tbaa !8
  %21 = load i32, ptr %6, align 4, !tbaa !8
  %22 = icmp sge i32 %20, %21
  br i1 %22, label %23, label %24

23:                                               ; preds = %19
  call void (i32, ptr, ...) @Abc_Print(i32 noundef -1, ptr noundef @.str.61)
  br label %44

24:                                               ; preds = %19
  %25 = load ptr, ptr %7, align 8, !tbaa !10
  %26 = load i32, ptr @globalUtilOptind, align 4, !tbaa !8
  %27 = sext i32 %26 to i64
  %28 = getelementptr inbounds ptr, ptr %25, i64 %27
  %29 = load ptr, ptr %28, align 8, !tbaa !14
  %30 = call i32 @atoi(ptr noundef %29) #9
  store i32 %30, ptr %9, align 4, !tbaa !8
  %31 = load i32, ptr @globalUtilOptind, align 4, !tbaa !8
  %32 = add nsw i32 %31, 1
  store i32 %32, ptr @globalUtilOptind, align 4, !tbaa !8
  %33 = load i32, ptr %9, align 4, !tbaa !8
  %34 = icmp slt i32 %33, 0
  br i1 %34, label %35, label %36

35:                                               ; preds = %24
  br label %44

36:                                               ; preds = %24
  br label %42

37:                                               ; preds = %17
  %38 = load i32, ptr %10, align 4, !tbaa !8
  %39 = xor i32 %38, 1
  store i32 %39, ptr %10, align 4, !tbaa !8
  br label %42

40:                                               ; preds = %17
  br label %44

41:                                               ; preds = %17
  br label %44

42:                                               ; preds = %37, %36
  br label %12, !llvm.loop !33

43:                                               ; preds = %12
  store i32 0, ptr %4, align 4
  store i32 1, ptr %11, align 4
  br label %49

44:                                               ; preds = %41, %40, %35, %23
  call void (i32, ptr, ...) @Abc_Print(i32 noundef -2, ptr noundef @.str.62)
  call void (i32, ptr, ...) @Abc_Print(i32 noundef -2, ptr noundef @.str.63)
  %45 = load i32, ptr %9, align 4, !tbaa !8
  call void (i32, ptr, ...) @Abc_Print(i32 noundef -2, ptr noundef @.str.64, i32 noundef %45)
  %46 = load i32, ptr %10, align 4, !tbaa !8
  %47 = icmp ne i32 %46, 0
  %48 = select i1 %47, ptr @.str.19, ptr @.str.20
  call void (i32, ptr, ...) @Abc_Print(i32 noundef -2, ptr noundef @.str.18, ptr noundef %48)
  call void (i32, ptr, ...) @Abc_Print(i32 noundef -2, ptr noundef @.str.21)
  store i32 1, ptr %4, align 4
  store i32 1, ptr %11, align 4
  br label %49

49:                                               ; preds = %44, %43
  call void @llvm.lifetime.end.p0(i64 4, ptr %10) #8
  call void @llvm.lifetime.end.p0(i64 4, ptr %9) #8
  call void @llvm.lifetime.end.p0(i64 4, ptr %8) #8
  %50 = load i32, ptr %4, align 4
  ret i32 %50
}