; Function Attrs: nounwind uwtable
define internal range(i32 0, 2) i32 @Abc_CommandTest(ptr readnone captures(none) %0, i32 noundef %1, ptr noundef %2) #0 {
  tail call void (...) @Extra_UtilGetoptReset() #10
  br label %.outer

.outer:                                           ; preds = %9, %3
  %.09.ph = phi i32 [ %14, %9 ], [ 4, %3 ]
  %.0.ph = phi i32 [ %.0, %9 ], [ 0, %3 ]
  br label %4

4:                                                ; preds = %.outer, %17
  %.0 = phi i32 [ %18, %17 ], [ %.0.ph, %.outer ]
  %5 = tail call i32 @Extra_UtilGetopt(i32 noundef %1, ptr noundef %2, ptr noundef nonnull @.str.60) #10
  switch i32 %5, label %.loopexit [
    i32 -1, label %.loopexit18
    i32 78, label %6
    i32 118, label %17
  ]

6:                                                ; preds = %4
  %7 = load i32, ptr @globalUtilOptind, align 4, !tbaa !5
  %.not16 = icmp slt i32 %7, %1
  br i1 %.not16, label %9, label %8

8:                                                ; preds = %6
  tail call void (i32, ptr, ...) @Abc_Print(i32 noundef -1, ptr noundef nonnull @.str.61)
  br label %.loopexit

9:                                                ; preds = %6
  %10 = sext i32 %7 to i64
  %11 = getelementptr inbounds ptr, ptr %2, i64 %10
  %12 = load ptr, ptr %11, align 8, !tbaa !9
  %13 = tail call i64 @strtol(ptr noundef nonnull captures(none) %12, ptr noundef null, i32 noundef 10) #10
  %14 = trunc i64 %13 to i32
  %15 = add nsw i32 %7, 1
  store i32 %15, ptr @globalUtilOptind, align 4, !tbaa !5
  %16 = icmp slt i32 %14, 0
  br i1 %16, label %.loopexit, label %.outer, !llvm.loop !50

17:                                               ; preds = %4
  %18 = xor i32 %.0, 1
  br label %4, !llvm.loop !50

.loopexit:                                        ; preds = %4, %9, %8
  %.110 = phi i32 [ %.09.ph, %8 ], [ %.09.ph, %4 ], [ %14, %9 ]
  tail call void (i32, ptr, ...) @Abc_Print(i32 noundef -2, ptr noundef nonnull @.str.62)
  tail call void (i32, ptr, ...) @Abc_Print(i32 noundef -2, ptr noundef nonnull @.str.63)
  tail call void (i32, ptr, ...) @Abc_Print(i32 noundef -2, ptr noundef nonnull @.str.64, i32 noundef %.110)
  %.not17 = icmp eq i32 %.0, 0
  %19 = select i1 %.not17, ptr @.str.20, ptr @.str.19
  tail call void (i32, ptr, ...) @Abc_Print(i32 noundef -2, ptr noundef nonnull @.str.18, ptr noundef nonnull %19)
  tail call void (i32, ptr, ...) @Abc_Print(i32 noundef -2, ptr noundef nonnull @.str.21)
  br label %.loopexit18

.loopexit18:                                      ; preds = %4, %.loopexit
  %.011 = phi i32 [ 1, %.loopexit ], [ 0, %4 ]
  ret i32 %.011
}